; Function Attrs: mustprogress uwtable
define hidden noundef nonnull ptr @_ZN6Assimp7Blender11createMLoopEm(i64 noundef %cnt) #0 personality ptr @__gxx_personality_v0 {
entry:
  %0 = tail call { i64, i1 } @llvm.umul.with.overflow.i64(i64 %cnt, i64 24)
  %1 = extractvalue { i64, i1 } %0, 1
  %2 = extractvalue { i64, i1 } %0, 0
  %3 = tail call { i64, i1 } @llvm.uadd.with.overflow.i64(i64 %2, i64 8)
  %4 = extractvalue { i64, i1 } %3, 1
  %5 = or i1 %1, %4
  %6 = extractvalue { i64, i1 } %3, 0
  %7 = select i1 %5, i64 -1, i64 %6
  %call = tail call noalias noundef nonnull ptr @_Znam(i64 noundef %7) #17
  store i64 %cnt, ptr %call, align 16
  %8 = getelementptr inbounds i8, ptr %call, i64 8
  %isempty = icmp eq i64 %cnt, 0
  br i1 %isempty, label %arrayctor.cont, label %new.ctorloop

new.ctorloop:                                     ; preds = %entry
  %arrayctor.end = getelementptr inbounds %"struct.Assimp::Blender::MLoop", ptr %8, i64 %cnt
  br label %arrayctor.loop

arrayctor.loop:                                   ; preds = %arrayctor.loop, %new.ctorloop
  %arrayctor.cur = phi ptr [ %8, %new.ctorloop ], [ %arrayctor.next, %arrayctor.loop ]
  %dna_type.i.i = getelementptr inbounds i8, ptr %arrayctor.cur, i64 8
  store ptr null, ptr %dna_type.i.i, align 8
  store ptr getelementptr inbounds ({ [4 x ptr] }, ptr @_ZTVN6Assimp7Blender5MLoopE, i64 0, i32 0, i64 2), ptr %arrayctor.cur, align 8
  %arrayctor.next = getelementptr inbounds i8, ptr %arrayctor.cur, i64 24
  %arrayctor.done = icmp eq ptr %arrayctor.next, %arrayctor.end
  br i1 %arrayctor.done, label %arrayctor.cont, label %arrayctor.loop

arrayctor.cont:                                   ; preds = %arrayctor.loop, %entry
  ret ptr %8
}